; Function Attrs: mustprogress uwtable
define noundef i64 @_ZN8proxygen26PassThroughHTTPCodecFilter26generateCertificateRequestERN5folly10IOBufQueueEtSt10unique_ptrINS1_5IOBufESt14default_deleteIS5_EE(ptr nocapture noundef nonnull readonly align 8 dereferenceable(72) %this, ptr noundef nonnull align 8 dereferenceable(72) %writeBuf, i16 noundef zeroext %requestId, ptr nocapture noundef %chain) unnamed_addr #3 align 2 personality ptr @__gxx_personality_v0 {
entry:
  %agg.tmp = alloca %"class.std::unique_ptr.2", align 8
  %call_ = getelementptr inbounds i8, ptr %this, i64 24
  %0 = load ptr, ptr %call_, align 8
  %1 = load i64, ptr %chain, align 8
  store i64 %1, ptr %agg.tmp, align 8
  store ptr null, ptr %chain, align 8
  %vtable = load ptr, ptr %0, align 8
  %vfn = getelementptr inbounds i8, ptr %vtable, i64 344
  %2 = load ptr, ptr %vfn, align 8
  %call = invoke noundef i64 %2(ptr noundef nonnull align 8 dereferenceable(8) %0, ptr noundef nonnull align 8 dereferenceable(72) %writeBuf, i16 noundef zeroext %requestId, ptr noundef nonnull %agg.tmp)
          to label %invoke.cont unwind label %lpad

invoke.cont:                                      ; preds = %entry
  %3 = load ptr, ptr %agg.tmp, align 8
  %cmp.not.i = icmp eq ptr %3, null
  br i1 %cmp.not.i, label %_ZNSt10unique_ptrIN5folly5IOBufESt14default_deleteIS1_EED2Ev.exit, label %_ZNKSt14default_deleteIN5folly5IOBufEEclEPS1_.exit.i

_ZNKSt14default_deleteIN5folly5IOBufEEclEPS1_.exit.i: ; preds = %invoke.cont
  call void @_ZN5folly5IOBufD1Ev(ptr noundef nonnull align 8 dereferenceable(56) %3) #15
  call void @_ZN5folly5IOBufdlEPv(ptr noundef nonnull %3) #15
  br label %_ZNSt10unique_ptrIN5folly5IOBufESt14default_deleteIS1_EED2Ev.exit

_ZNSt10unique_ptrIN5folly5IOBufESt14default_deleteIS1_EED2Ev.exit: ; preds = %invoke.cont, %_ZNKSt14default_deleteIN5folly5IOBufEEclEPS1_.exit.i
  ret i64 %call

lpad:                                             ; preds = %entry
  %4 = landingpad { ptr, i32 }
          cleanup
  call void @_ZNSt10unique_ptrIN5folly5IOBufESt14default_deleteIS1_EED2Ev(ptr noundef nonnull align 8 dereferenceable(8) %agg.tmp) #15
  resume { ptr, i32 } %4
}